target datalayout = "e-m:e-p270:32:32-p271:32:32-p272:64:64-i64:64-i128:128-f80:128-n8:16:32:64-S128"
target triple = "x86_64-pc-linux-gnu"

%struct.H5B_class_t = type { i32, i64, ptr, ptr, ptr, ptr, ptr, ptr, i8, i8, i32, ptr, ptr, ptr, ptr }
%struct.H5O_stab_t = type { i64, i64 }
%struct.H5O_loc_t = type { ptr, i64, i8 }
%struct.H5G_bt_common_t = type { ptr, ptr, i64 }
%struct.H5G_bt_lkp_t = type { %struct.H5G_bt_common_t, ptr, ptr }
%struct.H5G_stab_fnd_ud_t = type { ptr, ptr, ptr }

@H5B_SNODE = external global [1 x %struct.H5B_class_t], align 16
@.str = private unnamed_addr constant [101 x i8] c"generated/home/dtcxzyw/WorkSpace/Projects/compilers/llvm-opt-benchmark/bench/hdf5/hdf5/src/H5Gstab.c\00", align 1
@H5E_SYM_g = external global i64, align 8
@H5E_PROTECT_g = external global i64, align 8
@.str.3 = private unnamed_addr constant [36 x i8] c"unable to protect symbol table heap\00", align 1
@.str.6 = private unnamed_addr constant [38 x i8] c"unable to unprotect symbol table heap\00", align 1
@H5E_BADMESG_g = external global i64, align 8
@H5E_NOTFOUND_g = external global i64, align 8
@__func__.H5G__stab_lookup = private unnamed_addr constant [17 x i8] c"H5G__stab_lookup\00", align 1
@.str.23 = private unnamed_addr constant [19 x i8] c"can't read message\00", align 1
@.str.24 = private unnamed_addr constant [10 x i8] c"not found\00", align 1

; Function Attrs: nounwind uwtable
define i32 @H5G__stab_lookup(ptr noundef %0, ptr noundef %1, ptr noundef %2, ptr noundef %3) #0 {
  %5 = alloca ptr, align 8
  %6 = alloca ptr, align 8
  %7 = alloca ptr, align 8
  %8 = alloca ptr, align 8
  %9 = alloca ptr, align 8
  %10 = alloca %struct.H5G_bt_lkp_t, align 8
  %11 = alloca %struct.H5G_stab_fnd_ud_t, align 8
  %12 = alloca %struct.H5O_stab_t, align 8
  %13 = alloca i32, align 4
  %14 = alloca i8, align 1
  store ptr %0, ptr %5, align 8
  store ptr %1, ptr %6, align 8
  store ptr %2, ptr %7, align 8
  store ptr %3, ptr %8, align 8
  store ptr null, ptr %9, align 8
  store i32 0, ptr %13, align 4
  store i8 0, ptr %14, align 1
  %15 = load ptr, ptr %5, align 8
  %16 = call ptr @H5O_msg_read(ptr noundef %15, i32 noundef 17, ptr noundef %12)
  %17 = icmp eq ptr null, %16
  br i1 %17, label %18, label %33

18:                                               ; preds = %4
  br label %19

19:                                               ; preds = %18
  br label %20

20:                                               ; preds = %19
  br label %21

21:                                               ; preds = %20
  %22 = load i64, ptr @H5E_SYM_g, align 8
  %23 = load i64, ptr @H5E_BADMESG_g, align 8
  %24 = call i32 (ptr, ptr, i32, i64, i64, ptr, ...) @H5E_printf_stack(ptr noundef @.str, ptr noundef @__func__.H5G__stab_lookup, i32 noundef 808, i64 noundef %22, i64 noundef %23, ptr noundef @.str.23)
  br label %25

25:                                               ; preds = %21
  store i8 1, ptr %14, align 1
  %26 = load i8, ptr %14, align 1
  %27 = trunc i8 %26 to i1
  %28 = zext i1 %27 to i8
  store i8 %28, ptr %14, align 1
  br label %29

29:                                               ; preds = %25
  br label %30

30:                                               ; preds = %29
  store i32 -1, ptr %13, align 4
  br label %99

31:                                               ; No predecessors!
  br label %32

32:                                               ; preds = %31
  br label %33

33:                                               ; preds = %32, %4
  %34 = load ptr, ptr %5, align 8
  %35 = getelementptr inbounds %struct.H5O_loc_t, ptr %34, i32 0, i32 0
  %36 = load ptr, ptr %35, align 8
  %37 = getelementptr inbounds %struct.H5O_stab_t, ptr %12, i32 0, i32 1
  %38 = load i64, ptr %37, align 8
  %39 = call ptr @H5HL_protect(ptr noundef %36, i64 noundef %38, i32 noundef 128)
  store ptr %39, ptr %9, align 8
  %40 = icmp eq ptr null, %39
  br i1 %40, label %41, label %56

41:                                               ; preds = %33
  br label %42

42:                                               ; preds = %41
  br label %43

43:                                               ; preds = %42
  br label %44

44:                                               ; preds = %43
  %45 = load i64, ptr @H5E_SYM_g, align 8
  %46 = load i64, ptr @H5E_PROTECT_g, align 8
  %47 = call i32 (ptr, ptr, i32, i64, i64, ptr, ...) @H5E_printf_stack(ptr noundef @.str, ptr noundef @__func__.H5G__stab_lookup, i32 noundef 812, i64 noundef %45, i64 noundef %46, ptr noundef @.str.3)
  br label %48

48:                                               ; preds = %44
  store i8 1, ptr %14, align 1
  %49 = load i8, ptr %14, align 1
  %50 = trunc i8 %49 to i1
  %51 = zext i1 %50 to i8
  store i8 %51, ptr %14, align 1
  br label %52

52:                                               ; preds = %48
  br label %53

53:                                               ; preds = %52
  store i32 -1, ptr %13, align 4
  br label %99

54:                                               ; No predecessors!
  br label %55

55:                                               ; preds = %54
  br label %56

56:                                               ; preds = %55, %33
  %57 = load ptr, ptr %6, align 8
  %58 = getelementptr inbounds %struct.H5G_stab_fnd_ud_t, ptr %11, i32 0, i32 0
  store ptr %57, ptr %58, align 8
  %59 = load ptr, ptr %8, align 8
  %60 = getelementptr inbounds %struct.H5G_stab_fnd_ud_t, ptr %11, i32 0, i32 2
  store ptr %59, ptr %60, align 8
  %61 = load ptr, ptr %9, align 8
  %62 = getelementptr inbounds %struct.H5G_stab_fnd_ud_t, ptr %11, i32 0, i32 1
  store ptr %61, ptr %62, align 8
  %63 = load ptr, ptr %6, align 8
  %64 = getelementptr inbounds %struct.H5G_bt_lkp_t, ptr %10, i32 0, i32 0
  %65 = getelementptr inbounds %struct.H5G_bt_common_t, ptr %64, i32 0, i32 0
  store ptr %63, ptr %65, align 8
  %66 = load ptr, ptr %9, align 8
  %67 = getelementptr inbounds %struct.H5G_bt_lkp_t, ptr %10, i32 0, i32 0
  %68 = getelementptr inbounds %struct.H5G_bt_common_t, ptr %67, i32 0, i32 1
  store ptr %66, ptr %68, align 8
  %69 = load ptr, ptr %9, align 8
  %70 = call i64 @H5HL_heap_get_size(ptr noundef %69)
  %71 = getelementptr inbounds %struct.H5G_bt_lkp_t, ptr %10, i32 0, i32 0
  %72 = getelementptr inbounds %struct.H5G_bt_common_t, ptr %71, i32 0, i32 2
  store i64 %70, ptr %72, align 8
  %73 = getelementptr inbounds %struct.H5G_bt_lkp_t, ptr %10, i32 0, i32 1
  store ptr @H5G__stab_lookup_cb, ptr %73, align 8
  %74 = getelementptr inbounds %struct.H5G_bt_lkp_t, ptr %10, i32 0, i32 2
  store ptr %11, ptr %74, align 8
  %75 = load ptr, ptr %5, align 8
  %76 = getelementptr inbounds %struct.H5O_loc_t, ptr %75, i32 0, i32 0
  %77 = load ptr, ptr %76, align 8
  %78 = getelementptr inbounds %struct.H5O_stab_t, ptr %12, i32 0, i32 0
  %79 = load i64, ptr %78, align 8
  %80 = load ptr, ptr %7, align 8
  %81 = call i32 @H5B_find(ptr noundef %77, ptr noundef @H5B_SNODE, i64 noundef %79, ptr noundef %80, ptr noundef %10)
  %82 = icmp slt i32 %81, 0
  br i1 %82, label %83, label %98

83:                                               ; preds = %56
  br label %84

84:                                               ; preds = %83
  br label %85

85:                                               ; preds = %84
  br label %86

86:                                               ; preds = %85
  %87 = load i64, ptr @H5E_SYM_g, align 8
  %88 = load i64, ptr @H5E_NOTFOUND_g, align 8
  %89 = call i32 (ptr, ptr, i32, i64, i64, ptr, ...) @H5E_printf_stack(ptr noundef @.str, ptr noundef @__func__.H5G__stab_lookup, i32 noundef 828, i64 noundef %87, i64 noundef %88, ptr noundef @.str.24)
  br label %90

90:                                               ; preds = %86
  store i8 1, ptr %14, align 1
  %91 = load i8, ptr %14, align 1
  %92 = trunc i8 %91 to i1
  %93 = zext i1 %92 to i8
  store i8 %93, ptr %14, align 1
  br label %94

94:                                               ; preds = %90
  br label %95

95:                                               ; preds = %94
  store i32 -1, ptr %13, align 4
  br label %99

96:                                               ; No predecessors!
  br label %97

97:                                               ; preds = %96
  br label %98

98:                                               ; preds = %97, %56
  br label %99

99:                                               ; preds = %98, %95, %53, %30
  %100 = load ptr, ptr %9, align 8
  %101 = icmp ne ptr %100, null
  br i1 %101, label %102, label %119

102:                                              ; preds = %99
  %103 = load ptr, ptr %9, align 8
  %104 = call i32 @H5HL_unprotect(ptr noundef %103)
  %105 = icmp slt i32 %104, 0
  br i1 %105, label %106, label %119

106:                                              ; preds = %102
  br label %107

107:                                              ; preds = %106
  br label %108

108:                                              ; preds = %107
  br label %109

109:                                              ; preds = %108
  %110 = load i64, ptr @H5E_SYM_g, align 8
  %111 = load i64, ptr @H5E_PROTECT_g, align 8
  %112 = call i32 (ptr, ptr, i32, i64, i64, ptr, ...) @H5E_printf_stack(ptr noundef @.str, ptr noundef @__func__.H5G__stab_lookup, i32 noundef 833, i64 noundef %110, i64 noundef %111, ptr noundef @.str.6)
  br label %113

113:                                              ; preds = %109
  store i8 1, ptr %14, align 1
  %114 = load i8, ptr %14, align 1
  %115 = trunc i8 %114 to i1
  %116 = zext i1 %115 to i8
  store i8 %116, ptr %14, align 1
  br label %117

117:                                              ; preds = %113
  store i32 -1, ptr %13, align 4
  br label %118

118:                                              ; preds = %117
  br label %119

119:                                              ; preds = %118, %102, %99
  %120 = load i32, ptr %13, align 4
  ret i32 %120
}