; Function Attrs: nounwind uwtable
define range(i32 -1, 1) i32 @H5G__stab_lookup(ptr noundef %0, ptr noundef %1, ptr noundef %2, ptr noundef %3) local_unnamed_addr #0 {
  %5 = alloca %struct.H5G_bt_lkp_t, align 8
  %6 = alloca %struct.H5G_stab_fnd_ud_t, align 8
  %7 = alloca %struct.H5O_stab_t, align 8
  %8 = call ptr @H5O_msg_read(ptr noundef %0, i32 noundef 17, ptr noundef nonnull %7) #6
  %9 = icmp eq ptr %8, null
  br i1 %9, label %10, label %14

10:                                               ; preds = %4
  %11 = load i64, ptr @H5E_SYM_g, align 8
  %12 = load i64, ptr @H5E_BADMESG_g, align 8
  %13 = call i32 (ptr, ptr, i32, i64, i64, ptr, ...) @H5E_printf_stack(ptr noundef nonnull @.str, ptr noundef nonnull @__func__.H5G__stab_lookup, i32 noundef 808, i64 noundef %11, i64 noundef %12, ptr noundef nonnull @.str.23) #6
  br label %.thread

14:                                               ; preds = %4
  %15 = load ptr, ptr %0, align 8
  %16 = getelementptr inbounds i8, ptr %7, i64 8
  %17 = load i64, ptr %16, align 8
  %18 = call ptr @H5HL_protect(ptr noundef %15, i64 noundef %17, i32 noundef 128) #6
  %19 = icmp eq ptr %18, null
  br i1 %19, label %20, label %24

20:                                               ; preds = %14
  %21 = load i64, ptr @H5E_SYM_g, align 8
  %22 = load i64, ptr @H5E_PROTECT_g, align 8
  %23 = call i32 (ptr, ptr, i32, i64, i64, ptr, ...) @H5E_printf_stack(ptr noundef nonnull @.str, ptr noundef nonnull @__func__.H5G__stab_lookup, i32 noundef 812, i64 noundef %21, i64 noundef %22, ptr noundef nonnull @.str.3) #6
  br label %.thread

24:                                               ; preds = %14
  store ptr %1, ptr %6, align 8
  %25 = getelementptr inbounds i8, ptr %6, i64 16
  store ptr %3, ptr %25, align 8
  %26 = getelementptr inbounds i8, ptr %6, i64 8
  store ptr %18, ptr %26, align 8
  store ptr %1, ptr %5, align 8
  %27 = getelementptr inbounds i8, ptr %5, i64 8
  store ptr %18, ptr %27, align 8
  %28 = call i64 @H5HL_heap_get_size(ptr noundef nonnull %18) #6
  %29 = getelementptr inbounds i8, ptr %5, i64 16
  store i64 %28, ptr %29, align 8
  %30 = getelementptr inbounds i8, ptr %5, i64 24
  store ptr @H5G__stab_lookup_cb, ptr %30, align 8
  %31 = getelementptr inbounds i8, ptr %5, i64 32
  store ptr %6, ptr %31, align 8
  %32 = load ptr, ptr %0, align 8
  %33 = load i64, ptr %7, align 8
  %34 = call i32 @H5B_find(ptr noundef %32, ptr noundef nonnull @H5B_SNODE, i64 noundef %33, ptr noundef %2, ptr noundef nonnull %5) #6
  %35 = icmp slt i32 %34, 0
  br i1 %35, label %36, label %40

36:                                               ; preds = %24
  %37 = load i64, ptr @H5E_SYM_g, align 8
  %38 = load i64, ptr @H5E_NOTFOUND_g, align 8
  %39 = call i32 (ptr, ptr, i32, i64, i64, ptr, ...) @H5E_printf_stack(ptr noundef nonnull @.str, ptr noundef nonnull @__func__.H5G__stab_lookup, i32 noundef 828, i64 noundef %37, i64 noundef %38, ptr noundef nonnull @.str.24) #6
  br label %40

40:                                               ; preds = %36, %24
  %.0 = phi i32 [ -1, %36 ], [ 0, %24 ]
  %41 = call i32 @H5HL_unprotect(ptr noundef nonnull %18) #6
  %42 = icmp slt i32 %41, 0
  br i1 %42, label %43, label %.thread

43:                                               ; preds = %40
  %44 = load i64, ptr @H5E_SYM_g, align 8
  %45 = load i64, ptr @H5E_PROTECT_g, align 8
  %46 = call i32 (ptr, ptr, i32, i64, i64, ptr, ...) @H5E_printf_stack(ptr noundef nonnull @.str, ptr noundef nonnull @__func__.H5G__stab_lookup, i32 noundef 833, i64 noundef %44, i64 noundef %45, ptr noundef nonnull @.str.6) #6
  br label %.thread

.thread:                                          ; preds = %20, %10, %43, %40
  %.1 = phi i32 [ -1, %43 ], [ %.0, %40 ], [ -1, %10 ], [ -1, %20 ]
  ret i32 %.1
}